(dp1
S'vd'
p2
I45
sS'ad'
p3
I23
sS'ag'
p4
I41
sS'vg'
p5
I34
sS'nrfg'
p6
I10
sS'zg'
p7
I37
sS'vn'
p8
I22
sS'an'
p9
I35
sS'vq'
p10
I42
sS'u'
I39
sS'rr'
p11
I44
sS'eng'
p12
I19
sS'rz'
p13
I33
sS'ng'
p14
I16
sS'nz'
p15
I17
sS'rg'
p16
I46
sS'tg'
p17
I36
sS'nr'
p18
I5
sS'ns'
p19
I9
sS'nt'
p20
I7
sS'dg'
p21
I43
sS'mg'
p22
I48
sS'yg'
p23
I29
sS'nrt'
p24
I26
sS'a'
I2
sS'c'
I25
sS'b'
I18
sS'e'
I47
sS'd'
I11
sS'g'
I14
sS'f'
I24
sS'i'
I13
sS'h'
I38
sS'k'
I21
sS'j'
I28
sS'm'
I3
sS'l'
I8
sS'o'
I30
sS'n'
I1
sS'q'
I31
sS'p'
I32
sS's'
I12
sS'r'
I15
sS'mq'
p25
I20
sS't'
I4
sS'v'
I0
sS'y'
I40
sS'x'
I6
sS'z'
I27
s.